target datalayout = "e-m:e-p270:32:32-p271:32:32-p272:64:64-i64:64-i128:128-f80:128-n8:16:32:64-S128"
target triple = "x86_64-pc-linux-gnu"

%struct.ImVec2 = type { float, float }
%struct.ExampleTreeNode = type { [28 x i8], i32, ptr, %struct.ImVector.13, i16, i8, i8, i32, %struct.ImVec2 }
%struct.ImVector.13 = type { i32, i32, ptr }

; Function Attrs: inlinehint mustprogress nounwind uwtable
define linkonce_odr noundef ptr @_ZN8ImVectorIP15ExampleTreeNodeE3endEv(ptr noundef nonnull align 8 dereferenceable(16) %0) #7 comdat align 2 {
  %2 = alloca ptr, align 8
  store ptr %0, ptr %2, align 8, !tbaa !393
  %3 = load ptr, ptr %2, align 8
  %4 = getelementptr inbounds nuw %struct.ImVector.13, ptr %3, i32 0, i32 2
  %5 = load ptr, ptr %4, align 8, !tbaa !397
  %6 = getelementptr inbounds nuw %struct.ImVector.13, ptr %3, i32 0, i32 0
  %7 = load i32, ptr %6, align 8, !tbaa !399
  %8 = sext i32 %7 to i64
  %9 = getelementptr inbounds ptr, ptr %5, i64 %8
  ret ptr %9
}

; Function Attrs: inlinehint mustprogress nounwind uwtable
define linkonce_odr noundef ptr @_ZN8ImVectorIP15ExampleTreeNodeE5beginEv(ptr noundef nonnull align 8 dereferenceable(16) %0) #7 comdat align 2 {
  %2 = alloca ptr, align 8
  store ptr %0, ptr %2, align 8, !tbaa !393
  %3 = load ptr, ptr %2, align 8
  %4 = getelementptr inbounds nuw %struct.ImVector.13, ptr %3, i32 0, i32 2
  %5 = load ptr, ptr %4, align 8, !tbaa !397
  ret ptr %5
}

; Function Attrs: mustprogress uwtable
define internal void @_ZZL25ShowDemoWindowMultiSelectP19ImGuiDemoWindowDataEN16ExampleTreeFuncs8DrawNodeEP15ExampleTreeNodeP26ImGuiSelectionBasicStorage(ptr noundef %0, ptr noundef %1) #0 align 2 {
  %3 = alloca ptr, align 8
  %4 = alloca ptr, align 8
  %5 = alloca i32, align 4
  %6 = alloca ptr, align 8
  %7 = alloca ptr, align 8
  %8 = alloca ptr, align 8
  %9 = alloca ptr, align 8
  store ptr %0, ptr %3, align 8, !tbaa !392
  store ptr %1, ptr %4, align 8, !tbaa !435
  call void @llvm.lifetime.start.p0(i64 4, ptr %5) #2
  store i32 2240, ptr %5, align 4, !tbaa !33
  %10 = load i32, ptr %5, align 4, !tbaa !33
  %11 = or i32 %10, 131072
  store i32 %11, ptr %5, align 4, !tbaa !33
  %12 = load ptr, ptr %3, align 8, !tbaa !392
  %13 = getelementptr inbounds nuw %struct.ExampleTreeNode, ptr %12, i32 0, i32 3
  %14 = getelementptr inbounds nuw %struct.ImVector.13, ptr %13, i32 0, i32 0
  %15 = load i32, ptr %14, align 8, !tbaa !501
  %16 = icmp eq i32 %15, 0
  br i1 %16, label %17, label %20

17:                                               ; preds = %2
  %18 = load i32, ptr %5, align 4, !tbaa !33
  %19 = or i32 %18, 768
  store i32 %19, ptr %5, align 4, !tbaa !33
  br label %20

20:                                               ; preds = %17, %2
  %21 = load ptr, ptr %4, align 8, !tbaa !435
  %22 = load ptr, ptr %3, align 8, !tbaa !392
  %23 = getelementptr inbounds nuw %struct.ExampleTreeNode, ptr %22, i32 0, i32 1
  %24 = load i32, ptr %23, align 4, !tbaa !499
  %25 = call noundef zeroext i1 @_ZNK26ImGuiSelectionBasicStorage8ContainsEj(ptr noundef nonnull align 8 dereferenceable(48) %21, i32 noundef %24)
  br i1 %25, label %26, label %29

26:                                               ; preds = %20
  %27 = load i32, ptr %5, align 4, !tbaa !33
  %28 = or i32 %27, 1
  store i32 %28, ptr %5, align 4, !tbaa !33
  br label %29

29:                                               ; preds = %26, %20
  %30 = load ptr, ptr %3, align 8, !tbaa !392
  %31 = ptrtoint ptr %30 to i64
  call void @_ZN5ImGui28SetNextItemSelectionUserDataEx(i64 noundef %31)
  %32 = load ptr, ptr %3, align 8, !tbaa !392
  %33 = getelementptr inbounds nuw %struct.ExampleTreeNode, ptr %32, i32 0, i32 1
  %34 = load i32, ptr %33, align 4, !tbaa !499
  call void @_ZN5ImGui20SetNextItemStorageIDEj(i32 noundef %34)
  %35 = load ptr, ptr %3, align 8, !tbaa !392
  %36 = getelementptr inbounds nuw %struct.ExampleTreeNode, ptr %35, i32 0, i32 0
  %37 = getelementptr inbounds [28 x i8], ptr %36, i64 0, i64 0
  %38 = load i32, ptr %5, align 4, !tbaa !33
  %39 = call noundef zeroext i1 @_ZN5ImGui10TreeNodeExEPKci(ptr noundef %37, i32 noundef %38)
  br i1 %39, label %40, label %61

40:                                               ; preds = %29
  call void @llvm.lifetime.start.p0(i64 8, ptr %6) #2
  %41 = load ptr, ptr %3, align 8, !tbaa !392
  %42 = getelementptr inbounds nuw %struct.ExampleTreeNode, ptr %41, i32 0, i32 3
  store ptr %42, ptr %6, align 8, !tbaa !393
  call void @llvm.lifetime.start.p0(i64 8, ptr %7) #2
  %43 = load ptr, ptr %6, align 8, !tbaa !393
  %44 = call noundef ptr @_ZN8ImVectorIP15ExampleTreeNodeE5beginEv(ptr noundef nonnull align 8 dereferenceable(16) %43)
  store ptr %44, ptr %7, align 8, !tbaa !395
  call void @llvm.lifetime.start.p0(i64 8, ptr %8) #2
  %45 = load ptr, ptr %6, align 8, !tbaa !393
  %46 = call noundef ptr @_ZN8ImVectorIP15ExampleTreeNodeE3endEv(ptr noundef nonnull align 8 dereferenceable(16) %45)
  store ptr %46, ptr %8, align 8, !tbaa !395
  br label %47

47:                                               ; preds = %57, %40
  %48 = load ptr, ptr %7, align 8, !tbaa !395
  %49 = load ptr, ptr %8, align 8, !tbaa !395
  %50 = icmp ne ptr %48, %49
  br i1 %50, label %52, label %51

51:                                               ; preds = %47
  call void @llvm.lifetime.end.p0(i64 8, ptr %8) #2
  call void @llvm.lifetime.end.p0(i64 8, ptr %7) #2
  call void @llvm.lifetime.end.p0(i64 8, ptr %6) #2
  br label %60

52:                                               ; preds = %47
  call void @llvm.lifetime.start.p0(i64 8, ptr %9) #2
  %53 = load ptr, ptr %7, align 8, !tbaa !395
  %54 = load ptr, ptr %53, align 8, !tbaa !392
  store ptr %54, ptr %9, align 8, !tbaa !392
  %55 = load ptr, ptr %9, align 8, !tbaa !392
  %56 = load ptr, ptr %4, align 8, !tbaa !435
  call void @_ZZL25ShowDemoWindowMultiSelectP19ImGuiDemoWindowDataEN16ExampleTreeFuncs8DrawNodeEP15ExampleTreeNodeP26ImGuiSelectionBasicStorage(ptr noundef %55, ptr noundef %56)
  call void @llvm.lifetime.end.p0(i64 8, ptr %9) #2
  br label %57

57:                                               ; preds = %52
  %58 = load ptr, ptr %7, align 8, !tbaa !395
  %59 = getelementptr inbounds nuw ptr, ptr %58, i32 1
  store ptr %59, ptr %7, align 8, !tbaa !395
  br label %47

60:                                               ; preds = %51
  call void @_ZN5ImGui7TreePopEv()
  br label %68

61:                                               ; preds = %29
  %62 = call noundef zeroext i1 @_ZN5ImGui17IsItemToggledOpenEv()
  br i1 %62, label %63, label %67

63:                                               ; preds = %61
  %64 = load ptr, ptr %3, align 8, !tbaa !392
  %65 = load ptr, ptr %4, align 8, !tbaa !435
  %66 = call noundef i32 @_ZZL25ShowDemoWindowMultiSelectP19ImGuiDemoWindowDataEN16ExampleTreeFuncs30TreeCloseAndUnselectChildNodesEP15ExampleTreeNodeP26ImGuiSelectionBasicStoragei(ptr noundef %64, ptr noundef %65, i32 noundef 0)
  br label %67

67:                                               ; preds = %63, %61
  br label %68

68:                                               ; preds = %67, %60
  call void @llvm.lifetime.end.p0(i64 4, ptr %5) #2
  ret void
}