; Function Attrs: mustprogress uwtable
define internal fastcc void @_ZZL25ShowDemoWindowMultiSelectP19ImGuiDemoWindowDataEN16ExampleTreeFuncs8DrawNodeEP15ExampleTreeNodeP26ImGuiSelectionBasicStorage(ptr noundef %0) unnamed_addr #4 align 2 {
  %2 = getelementptr inbounds nuw i8, ptr %0, i64 40
  %3 = load i32, ptr %2, align 8, !tbaa !477
  %4 = icmp eq i32 %3, 0
  %spec.select = select i1 %4, i32 134080, i32 133312
  %5 = getelementptr inbounds nuw i8, ptr %0, i64 28
  %6 = load i32, ptr %5, align 4, !tbaa !473
  %7 = tail call noundef zeroext i1 @_ZNK26ImGuiSelectionBasicStorage8ContainsEj(ptr noundef nonnull align 8 dereferenceable(48) @_ZZL25ShowDemoWindowMultiSelectP19ImGuiDemoWindowDataE9selection_4, i32 noundef %6)
  %8 = zext i1 %7 to i32
  %.1 = or disjoint i32 %spec.select, %8
  %9 = ptrtoint ptr %0 to i64
  tail call void @_ZN5ImGui28SetNextItemSelectionUserDataEx(i64 noundef %9)
  %10 = load i32, ptr %5, align 4, !tbaa !473
  tail call void @_ZN5ImGui20SetNextItemStorageIDEj(i32 noundef %10)
  %11 = tail call noundef zeroext i1 @_ZN5ImGui10TreeNodeExEPKci(ptr noundef %0, i32 noundef %.1)
  br i1 %11, label %12, label %20

12:                                               ; preds = %1
  %13 = getelementptr inbounds nuw i8, ptr %0, i64 48
  %14 = load ptr, ptr %13, align 8, !tbaa !401
  %15 = load i32, ptr %2, align 8, !tbaa !404
  %16 = sext i32 %15 to i64
  %17 = getelementptr inbounds ptr, ptr %14, i64 %16
  %.not1 = icmp eq i32 %15, 0
  br i1 %.not1, label %._crit_edge, label %.lr.ph

._crit_edge:                                      ; preds = %.lr.ph, %12
  tail call void @_ZN5ImGui7TreePopEv()
  br label %24

.lr.ph:                                           ; preds = %12, %.lr.ph
  %.0202 = phi ptr [ %19, %.lr.ph ], [ %14, %12 ]
  %18 = load ptr, ptr %.0202, align 8, !tbaa !405
  tail call fastcc void @_ZZL25ShowDemoWindowMultiSelectP19ImGuiDemoWindowDataEN16ExampleTreeFuncs8DrawNodeEP15ExampleTreeNodeP26ImGuiSelectionBasicStorage(ptr noundef %18)
  %19 = getelementptr inbounds nuw i8, ptr %.0202, i64 8
  %.not = icmp eq ptr %19, %17
  br i1 %.not, label %._crit_edge, label %.lr.ph

20:                                               ; preds = %1
  %21 = tail call noundef zeroext i1 @_ZN5ImGui17IsItemToggledOpenEv()
  br i1 %21, label %22, label %24

22:                                               ; preds = %20
  %23 = tail call fastcc noundef i32 @_ZZL25ShowDemoWindowMultiSelectP19ImGuiDemoWindowDataEN16ExampleTreeFuncs30TreeCloseAndUnselectChildNodesEP15ExampleTreeNodeP26ImGuiSelectionBasicStoragei(ptr noundef nonnull %0, i32 noundef 0)
  br label %24

24:                                               ; preds = %20, %22, %._crit_edge
  ret void
}